target datalayout = "e-m:e-p270:32:32-p271:32:32-p272:64:64-i64:64-i128:128-f80:128-n8:16:32:64-S128"
target triple = "x86_64-pc-linux-gnu"

%class.Sample = type { ptr, ptr, ptr, ptr, ptr, i8, float, float, float, float, float, float, float, float, float, float, float, float, float, i32, i8, i8, i8, ptr, [9 x ptr], ptr, %class.SampleDebugDraw }
%class.SampleDebugDraw = type { %class.DebugDrawGL }
%class.DebugDrawGL = type { %struct.duDebugDraw }
%struct.duDebugDraw = type { ptr }
%class.Sample_TempObstacles = type <{ %class.Sample, i8, [7 x i8], ptr, ptr, ptr, ptr, float, i32, i32, i32, i32, i32, i32, i32, float, [4 x i8] }>

; Function Attrs: mustprogress uwtable
define dso_local void @_ZN20Sample_TempObstacles16renderCachedTileEiii(ptr noundef nonnull align 8 dereferenceable(276) %0, i32 noundef %1, i32 noundef %2, i32 noundef %3) #5 align 2 {
  %5 = alloca ptr, align 8
  %6 = alloca i32, align 4
  %7 = alloca i32, align 4
  %8 = alloca i32, align 4
  store ptr %0, ptr %5, align 8
  store i32 %1, ptr %6, align 4
  store i32 %2, ptr %7, align 4
  store i32 %3, ptr %8, align 4
  %9 = load ptr, ptr %5, align 8
  %10 = getelementptr inbounds %class.Sample_TempObstacles, ptr %9, i32 0, i32 6
  %11 = load ptr, ptr %10, align 8
  %12 = icmp ne ptr %11, null
  br i1 %12, label %13, label %20

13:                                               ; preds = %4
  %14 = getelementptr inbounds %class.Sample, ptr %9, i32 0, i32 26
  %15 = getelementptr inbounds %class.Sample_TempObstacles, ptr %9, i32 0, i32 6
  %16 = load ptr, ptr %15, align 8
  %17 = load i32, ptr %6, align 4
  %18 = load i32, ptr %7, align 4
  %19 = load i32, ptr %8, align 4
  call void @_Z10drawDetailP11duDebugDrawP11dtTileCacheiii(ptr noundef %14, ptr noundef %16, i32 noundef %17, i32 noundef %18, i32 noundef %19)
  br label %20

20:                                               ; preds = %13, %4
  ret void
}