; Function Attrs: mustprogress uwtable
define dso_local void @_ZN20Sample_TempObstacles16renderCachedTileEiii(ptr noundef nonnull align 8 dereferenceable(276) %0, i32 noundef %1, i32 noundef %2, i32 noundef %3) local_unnamed_addr #5 align 2 {
  %5 = getelementptr inbounds i8, ptr %0, i64 232
  %6 = load ptr, ptr %5, align 8
  %.not = icmp eq ptr %6, null
  br i1 %.not, label %9, label %7

7:                                                ; preds = %4
  %8 = getelementptr inbounds i8, ptr %0, i64 192
  tail call void @_Z10drawDetailP11duDebugDrawP11dtTileCacheiii(ptr noundef nonnull %8, ptr noundef nonnull %6, i32 noundef %1, i32 noundef %2, i32 noundef %3)
  br label %9

9:                                                ; preds = %7, %4
  ret void
}